target datalayout = "e-m:e-p270:32:32-p271:32:32-p272:64:64-i64:64-i128:128-f80:128-n8:16:32:64-S128"
target triple = "x86_64-pc-linux-gnu"

%struct.gres_state = type { i32, i32, ptr, ptr, i32 }
%struct.gres_job_state = type { i32, ptr, i16, i16, i64, i64, i64, i64, i64, i16, i16, i64, i32, ptr, ptr, ptr, ptr, i32, i64, i32, ptr, ptr, ptr, ptr, ptr, ptr }

@.str = private unnamed_addr constant [8 x i8] c"gpu:%lu\00", align 1

; Function Attrs: nounwind uwtable
define dso_local void @gres_select_util_job_set_defs(ptr noundef %0, ptr noundef %1, i64 noundef %2, i64 noundef %3, ptr noundef %4, ptr noundef %5, ptr noundef %6) #0 {
  %8 = alloca ptr, align 8
  %9 = alloca ptr, align 8
  %10 = alloca i64, align 8
  %11 = alloca i64, align 8
  %12 = alloca ptr, align 8
  %13 = alloca ptr, align 8
  %14 = alloca ptr, align 8
  %15 = alloca i32, align 4
  %16 = alloca ptr, align 8
  %17 = alloca ptr, align 8
  %18 = alloca ptr, align 8
  %19 = alloca i32, align 4
  store ptr %0, ptr %8, align 8
  store ptr %1, ptr %9, align 8
  store i64 %2, ptr %10, align 8
  store i64 %3, ptr %11, align 8
  store ptr %4, ptr %12, align 8
  store ptr %5, ptr %13, align 8
  store ptr %6, ptr %14, align 8
  call void @llvm.lifetime.start.p0(i64 4, ptr %15) #3
  call void @llvm.lifetime.start.p0(i64 8, ptr %16) #3
  call void @llvm.lifetime.start.p0(i64 8, ptr %17) #3
  store ptr null, ptr %17, align 8
  call void @llvm.lifetime.start.p0(i64 8, ptr %18) #3
  %20 = load ptr, ptr %8, align 8
  %21 = icmp ne ptr %20, null
  br i1 %21, label %23, label %22

22:                                               ; preds = %7
  store i32 1, ptr %19, align 4
  br label %114

23:                                               ; preds = %7
  %24 = load ptr, ptr %9, align 8
  %25 = call i32 @gres_build_id(ptr noundef %24)
  store i32 %25, ptr %15, align 4
  %26 = load ptr, ptr %8, align 8
  %27 = call ptr @slurm_list_iterator_create(ptr noundef %26)
  store ptr %27, ptr %16, align 8
  br label %28

28:                                               ; preds = %111, %45, %38, %23
  %29 = load ptr, ptr %16, align 8
  %30 = call ptr @slurm_list_next(ptr noundef %29)
  store ptr %30, ptr %17, align 8
  %31 = icmp ne ptr %30, null
  br i1 %31, label %32, label %112

32:                                               ; preds = %28
  %33 = load ptr, ptr %17, align 8
  %34 = getelementptr inbounds nuw %struct.gres_state, ptr %33, i32 0, i32 1
  %35 = load i32, ptr %34, align 4
  %36 = load i32, ptr %15, align 4
  %37 = icmp ne i32 %35, %36
  br i1 %37, label %38, label %39

38:                                               ; preds = %32
  br label %28, !llvm.loop !8

39:                                               ; preds = %32
  %40 = load ptr, ptr %17, align 8
  %41 = getelementptr inbounds nuw %struct.gres_state, ptr %40, i32 0, i32 2
  %42 = load ptr, ptr %41, align 8
  store ptr %42, ptr %18, align 8
  %43 = load ptr, ptr %18, align 8
  %44 = icmp ne ptr %43, null
  br i1 %44, label %46, label %45

45:                                               ; preds = %39
  br label %28, !llvm.loop !8

46:                                               ; preds = %39
  %47 = load i64, ptr %10, align 8
  %48 = trunc i64 %47 to i16
  %49 = load ptr, ptr %18, align 8
  %50 = getelementptr inbounds nuw %struct.gres_job_state, ptr %49, i32 0, i32 10
  store i16 %48, ptr %50, align 2
  %51 = load i64, ptr %11, align 8
  %52 = load ptr, ptr %18, align 8
  %53 = getelementptr inbounds nuw %struct.gres_job_state, ptr %52, i32 0, i32 11
  store i64 %51, ptr %53, align 8
  %54 = load ptr, ptr %18, align 8
  %55 = getelementptr inbounds nuw %struct.gres_job_state, ptr %54, i32 0, i32 3
  %56 = load i16, ptr %55, align 2
  %57 = icmp ne i16 %56, 0
  br i1 %57, label %66, label %58

58:                                               ; preds = %46
  %59 = load ptr, ptr %12, align 8
  call void @slurm_xfree(ptr noundef %59)
  %60 = load i64, ptr %10, align 8
  %61 = icmp ne i64 %60, 0
  br i1 %61, label %62, label %65

62:                                               ; preds = %58
  %63 = load ptr, ptr %12, align 8
  %64 = load i64, ptr %10, align 8
  call void (ptr, ptr, ...) @slurm_xstrfmtcat(ptr noundef %63, ptr noundef @.str, i64 noundef %64)
  br label %65

65:                                               ; preds = %62, %58
  br label %66

66:                                               ; preds = %65, %46
  %67 = load ptr, ptr %18, align 8
  %68 = getelementptr inbounds nuw %struct.gres_job_state, ptr %67, i32 0, i32 8
  %69 = load i64, ptr %68, align 8
  %70 = icmp ne i64 %69, 0
  br i1 %70, label %79, label %71

71:                                               ; preds = %66
  %72 = load ptr, ptr %13, align 8
  call void @slurm_xfree(ptr noundef %72)
  %73 = load i64, ptr %11, align 8
  %74 = icmp ne i64 %73, 0
  br i1 %74, label %75, label %78

75:                                               ; preds = %71
  %76 = load ptr, ptr %13, align 8
  %77 = load i64, ptr %11, align 8
  call void (ptr, ptr, ...) @slurm_xstrfmtcat(ptr noundef %76, ptr noundef @.str, i64 noundef %77)
  br label %78

78:                                               ; preds = %75, %71
  br label %79

79:                                               ; preds = %78, %66
  %80 = load i64, ptr %10, align 8
  %81 = icmp ne i64 %80, 0
  br i1 %81, label %82, label %111

82:                                               ; preds = %79
  %83 = load ptr, ptr %18, align 8
  %84 = getelementptr inbounds nuw %struct.gres_job_state, ptr %83, i32 0, i32 7
  %85 = load i64, ptr %84, align 8
  %86 = icmp ne i64 %85, 0
  br i1 %86, label %87, label %111

87:                                               ; preds = %82
  %88 = load ptr, ptr %14, align 8
  %89 = load i16, ptr %88, align 2
  %90 = zext i16 %89 to i64
  %91 = load ptr, ptr %18, align 8
  %92 = getelementptr inbounds nuw %struct.gres_job_state, ptr %91, i32 0, i32 7
  %93 = load i64, ptr %92, align 8
  %94 = load i64, ptr %10, align 8
  %95 = mul i64 %93, %94
  %96 = icmp ugt i64 %90, %95
  br i1 %96, label %97, label %101

97:                                               ; preds = %87
  %98 = load ptr, ptr %14, align 8
  %99 = load i16, ptr %98, align 2
  %100 = zext i16 %99 to i64
  br label %107

101:                                              ; preds = %87
  %102 = load ptr, ptr %18, align 8
  %103 = getelementptr inbounds nuw %struct.gres_job_state, ptr %102, i32 0, i32 7
  %104 = load i64, ptr %103, align 8
  %105 = load i64, ptr %10, align 8
  %106 = mul i64 %104, %105
  br label %107

107:                                              ; preds = %101, %97
  %108 = phi i64 [ %100, %97 ], [ %106, %101 ]
  %109 = trunc i64 %108 to i16
  %110 = load ptr, ptr %14, align 8
  store i16 %109, ptr %110, align 2
  br label %111

111:                                              ; preds = %107, %82, %79
  br label %28, !llvm.loop !8

112:                                              ; preds = %28
  %113 = load ptr, ptr %16, align 8
  call void @slurm_list_iterator_destroy(ptr noundef %113)
  store i32 0, ptr %19, align 4
  br label %114

114:                                              ; preds = %112, %22
  call void @llvm.lifetime.end.p0(i64 8, ptr %18) #3
  call void @llvm.lifetime.end.p0(i64 8, ptr %17) #3
  call void @llvm.lifetime.end.p0(i64 8, ptr %16) #3
  call void @llvm.lifetime.end.p0(i64 4, ptr %15) #3
  %115 = load i32, ptr %19, align 4
  switch i32 %115, label %117 [
    i32 0, label %116
    i32 1, label %116
  ]

116:                                              ; preds = %114, %114
  ret void

117:                                              ; preds = %114
  unreachable
}