; Function Attrs: nounwind uwtable
define dso_local void @gres_select_util_job_set_defs(ptr noundef %0, ptr noundef %1, i64 noundef %2, i64 noundef %3, ptr noundef %4, ptr noundef %5, ptr noundef captures(none) %6) local_unnamed_addr #0 {
  %.not = icmp eq ptr %0, null
  br i1 %.not, label %83, label %8

8:                                                ; preds = %7
  %9 = tail call i32 @gres_build_id(ptr noundef %1) #4
  %10 = tail call ptr @slurm_list_iterator_create(ptr noundef nonnull %0) #4
  %11 = tail call ptr @slurm_list_next(ptr noundef %10) #4
  %.not3847 = icmp eq ptr %11, null
  br i1 %.not3847, label %._crit_edge, label %.lr.ph

.lr.ph:                                           ; preds = %8
  %12 = trunc i64 %2 to i16
  %.not42 = icmp eq i64 %2, 0
  %.not44 = icmp eq i64 %3, 0
  br i1 %.not42, label %.lr.ph.split.us, label %.lr.ph.split.split

.lr.ph.split.us:                                  ; preds = %.lr.ph, %.backedge.us
  %13 = phi ptr [ %30, %.backedge.us ], [ %11, %.lr.ph ]
  %14 = getelementptr inbounds nuw i8, ptr %13, i64 4
  %15 = load i32, ptr %14, align 4
  %.not39.us = icmp eq i32 %15, %9
  br i1 %.not39.us, label %16, label %.backedge.us

16:                                               ; preds = %.lr.ph.split.us
  %17 = getelementptr inbounds nuw i8, ptr %13, i64 8
  %18 = load ptr, ptr %17, align 8
  %.not40.us = icmp eq ptr %18, null
  br i1 %.not40.us, label %.backedge.us, label %19

19:                                               ; preds = %16
  %20 = getelementptr inbounds nuw i8, ptr %18, i64 66
  store i16 %12, ptr %20, align 2
  %21 = getelementptr inbounds nuw i8, ptr %18, i64 72
  store i64 %3, ptr %21, align 8
  %22 = getelementptr inbounds nuw i8, ptr %18, i64 18
  %23 = load i16, ptr %22, align 2
  %.not41.us = icmp eq i16 %23, 0
  br i1 %.not41.us, label %24, label %25

24:                                               ; preds = %19
  tail call void @slurm_xfree(ptr noundef %4) #4
  br label %25

25:                                               ; preds = %24, %19
  %26 = getelementptr inbounds nuw i8, ptr %18, i64 56
  %27 = load i64, ptr %26, align 8
  %.not43.us = icmp eq i64 %27, 0
  br i1 %.not43.us, label %28, label %.backedge.us

28:                                               ; preds = %25
  tail call void @slurm_xfree(ptr noundef %5) #4
  br i1 %.not44, label %.backedge.us, label %29

29:                                               ; preds = %28
  tail call void (ptr, ptr, ...) @slurm_xstrfmtcat(ptr noundef %5, ptr noundef nonnull @.str, i64 noundef %3) #4
  br label %.backedge.us

.backedge.us:                                     ; preds = %25, %28, %29, %16, %.lr.ph.split.us
  %30 = tail call ptr @slurm_list_next(ptr noundef %10) #4
  %.not38.us = icmp eq ptr %30, null
  br i1 %.not38.us, label %._crit_edge, label %.lr.ph.split.us, !llvm.loop !8

.lr.ph.split.split:                               ; preds = %.lr.ph
  br i1 %.not44, label %.lr.ph.split.split.split.us, label %.lr.ph.split.split.split

.lr.ph.split.split.split.us:                      ; preds = %.lr.ph.split.split, %.backedge.us59
  %31 = phi ptr [ %56, %.backedge.us59 ], [ %11, %.lr.ph.split.split ]
  %32 = getelementptr inbounds nuw i8, ptr %31, i64 4
  %33 = load i32, ptr %32, align 4
  %.not39.us54 = icmp eq i32 %33, %9
  br i1 %.not39.us54, label %34, label %.backedge.us59

34:                                               ; preds = %.lr.ph.split.split.split.us
  %35 = getelementptr inbounds nuw i8, ptr %31, i64 8
  %36 = load ptr, ptr %35, align 8
  %.not40.us55 = icmp eq ptr %36, null
  br i1 %.not40.us55, label %.backedge.us59, label %37

37:                                               ; preds = %34
  %38 = getelementptr inbounds nuw i8, ptr %36, i64 66
  store i16 %12, ptr %38, align 2
  %39 = getelementptr inbounds nuw i8, ptr %36, i64 72
  store i64 0, ptr %39, align 8
  %40 = getelementptr inbounds nuw i8, ptr %36, i64 18
  %41 = load i16, ptr %40, align 2
  %.not41.us56 = icmp eq i16 %41, 0
  br i1 %.not41.us56, label %42, label %43

42:                                               ; preds = %37
  tail call void @slurm_xfree(ptr noundef %4) #4
  tail call void (ptr, ptr, ...) @slurm_xstrfmtcat(ptr noundef %4, ptr noundef nonnull @.str, i64 noundef %2) #4
  br label %43

43:                                               ; preds = %42, %37
  %44 = getelementptr inbounds nuw i8, ptr %36, i64 56
  %45 = load i64, ptr %44, align 8
  %.not43.us57 = icmp eq i64 %45, 0
  br i1 %.not43.us57, label %46, label %47

46:                                               ; preds = %43
  tail call void @slurm_xfree(ptr noundef %5) #4
  br label %47

47:                                               ; preds = %46, %43
  %48 = getelementptr inbounds nuw i8, ptr %36, i64 48
  %49 = load i64, ptr %48, align 8
  %.not46.us58 = icmp eq i64 %49, 0
  br i1 %.not46.us58, label %.backedge.us59, label %50

50:                                               ; preds = %47
  %51 = load i16, ptr %6, align 2
  %52 = zext i16 %51 to i64
  %53 = mul i64 %49, %2
  %54 = tail call i64 @llvm.umax.i64(i64 %53, i64 %52)
  %55 = trunc i64 %54 to i16
  store i16 %55, ptr %6, align 2
  br label %.backedge.us59

.backedge.us59:                                   ; preds = %47, %50, %34, %.lr.ph.split.split.split.us
  %56 = tail call ptr @slurm_list_next(ptr noundef %10) #4
  %.not38.us60 = icmp eq ptr %56, null
  br i1 %.not38.us60, label %._crit_edge, label %.lr.ph.split.split.split.us, !llvm.loop !8

.lr.ph.split.split.split:                         ; preds = %.lr.ph.split.split, %.backedge
  %57 = phi ptr [ %82, %.backedge ], [ %11, %.lr.ph.split.split ]
  %58 = getelementptr inbounds nuw i8, ptr %57, i64 4
  %59 = load i32, ptr %58, align 4
  %.not39 = icmp eq i32 %59, %9
  br i1 %.not39, label %60, label %.backedge

60:                                               ; preds = %.lr.ph.split.split.split
  %61 = getelementptr inbounds nuw i8, ptr %57, i64 8
  %62 = load ptr, ptr %61, align 8
  %.not40 = icmp eq ptr %62, null
  br i1 %.not40, label %.backedge, label %63

63:                                               ; preds = %60
  %64 = getelementptr inbounds nuw i8, ptr %62, i64 66
  store i16 %12, ptr %64, align 2
  %65 = getelementptr inbounds nuw i8, ptr %62, i64 72
  store i64 %3, ptr %65, align 8
  %66 = getelementptr inbounds nuw i8, ptr %62, i64 18
  %67 = load i16, ptr %66, align 2
  %.not41 = icmp eq i16 %67, 0
  br i1 %.not41, label %68, label %69

68:                                               ; preds = %63
  tail call void @slurm_xfree(ptr noundef %4) #4
  tail call void (ptr, ptr, ...) @slurm_xstrfmtcat(ptr noundef %4, ptr noundef nonnull @.str, i64 noundef %2) #4
  br label %69

69:                                               ; preds = %68, %63
  %70 = getelementptr inbounds nuw i8, ptr %62, i64 56
  %71 = load i64, ptr %70, align 8
  %.not43 = icmp eq i64 %71, 0
  br i1 %.not43, label %72, label %73

72:                                               ; preds = %69
  tail call void @slurm_xfree(ptr noundef %5) #4
  tail call void (ptr, ptr, ...) @slurm_xstrfmtcat(ptr noundef %5, ptr noundef nonnull @.str, i64 noundef %3) #4
  br label %73

73:                                               ; preds = %72, %69
  %74 = getelementptr inbounds nuw i8, ptr %62, i64 48
  %75 = load i64, ptr %74, align 8
  %.not46 = icmp eq i64 %75, 0
  br i1 %.not46, label %.backedge, label %76

76:                                               ; preds = %73
  %77 = load i16, ptr %6, align 2
  %78 = zext i16 %77 to i64
  %79 = mul i64 %75, %2
  %80 = tail call i64 @llvm.umax.i64(i64 %79, i64 %78)
  %81 = trunc i64 %80 to i16
  store i16 %81, ptr %6, align 2
  br label %.backedge

.backedge:                                        ; preds = %73, %76, %.lr.ph.split.split.split, %60
  %82 = tail call ptr @slurm_list_next(ptr noundef %10) #4
  %.not38 = icmp eq ptr %82, null
  br i1 %.not38, label %._crit_edge, label %.lr.ph.split.split.split, !llvm.loop !8

._crit_edge:                                      ; preds = %.backedge, %.backedge.us59, %.backedge.us, %8
  tail call void @slurm_list_iterator_destroy(ptr noundef %10) #4
  br label %83

83:                                               ; preds = %7, %._crit_edge
  ret void
}